target datalayout = "e-m:e-p270:32:32-p271:32:32-p272:64:64-i64:64-i128:128-f80:128-n8:16:32:64-S128"
target triple = "x86_64-unknown-linux-gnu"

%struct.NetClientState = type { ptr, i32, %union.anon, ptr, ptr, ptr, ptr, [256 x i8], i8, ptr, i32, i8, i32, i32, i8, i8, i8, %union.anon.0 }
%union.anon = type { %struct.QTailQLink }
%struct.QTailQLink = type { ptr, ptr }
%union.anon.0 = type { %struct.QTailQLink }
%struct.NetVhostUserState = type { %struct.NetClientState, %struct.CharBackend, ptr, ptr, i32, i64, i8 }
%struct.CharBackend = type { ptr, ptr, ptr, ptr, ptr, ptr, i32, i32 }

; Function Attrs: nounwind sspstrong uwtable
define internal void @net_vhost_user_cleanup(ptr noundef %nc) #0 {
entry:
  %nc.addr = alloca ptr, align 8
  %s = alloca ptr, align 8
  %tmp = alloca ptr, align 8
  %__mptr = alloca ptr, align 8
  %tmp1 = alloca ptr, align 8
  store ptr %nc, ptr %nc.addr, align 8
  %0 = load ptr, ptr %nc.addr, align 8
  store ptr %0, ptr %__mptr, align 8
  %1 = load ptr, ptr %__mptr, align 8
  %add.ptr = getelementptr i8, ptr %1, i64 0
  store ptr %add.ptr, ptr %tmp1, align 8
  %2 = load ptr, ptr %tmp1, align 8
  store ptr %2, ptr %tmp, align 8
  %3 = load ptr, ptr %tmp, align 8
  store ptr %3, ptr %s, align 8
  %4 = load ptr, ptr %s, align 8
  %vhost_net = getelementptr inbounds %struct.NetVhostUserState, ptr %4, i32 0, i32 3
  %5 = load ptr, ptr %vhost_net, align 8
  %tobool = icmp ne ptr %5, null
  br i1 %tobool, label %if.then, label %if.end

if.then:                                          ; preds = %entry
  %6 = load ptr, ptr %s, align 8
  %vhost_net2 = getelementptr inbounds %struct.NetVhostUserState, ptr %6, i32 0, i32 3
  %7 = load ptr, ptr %vhost_net2, align 8
  call void @vhost_net_cleanup(ptr noundef %7)
  %8 = load ptr, ptr %s, align 8
  %vhost_net3 = getelementptr inbounds %struct.NetVhostUserState, ptr %8, i32 0, i32 3
  %9 = load ptr, ptr %vhost_net3, align 8
  call void @g_free(ptr noundef %9)
  %10 = load ptr, ptr %s, align 8
  %vhost_net4 = getelementptr inbounds %struct.NetVhostUserState, ptr %10, i32 0, i32 3
  store ptr null, ptr %vhost_net4, align 8
  br label %if.end

if.end:                                           ; preds = %if.then, %entry
  %11 = load ptr, ptr %nc.addr, align 8
  %queue_index = getelementptr inbounds %struct.NetClientState, ptr %11, i32 0, i32 10
  %12 = load i32, ptr %queue_index, align 8
  %cmp = icmp eq i32 %12, 0
  br i1 %cmp, label %if.then5, label %if.end17

if.then5:                                         ; preds = %if.end
  %13 = load ptr, ptr %s, align 8
  %watch = getelementptr inbounds %struct.NetVhostUserState, ptr %13, i32 0, i32 4
  %14 = load i32, ptr %watch, align 8
  %tobool6 = icmp ne i32 %14, 0
  br i1 %tobool6, label %if.then7, label %if.end10

if.then7:                                         ; preds = %if.then5
  %15 = load ptr, ptr %s, align 8
  %watch8 = getelementptr inbounds %struct.NetVhostUserState, ptr %15, i32 0, i32 4
  %16 = load i32, ptr %watch8, align 8
  %call = call i32 @g_source_remove(i32 noundef %16)
  %17 = load ptr, ptr %s, align 8
  %watch9 = getelementptr inbounds %struct.NetVhostUserState, ptr %17, i32 0, i32 4
  store i32 0, ptr %watch9, align 8
  br label %if.end10

if.end10:                                         ; preds = %if.then7, %if.then5
  %18 = load ptr, ptr %s, align 8
  %chr = getelementptr inbounds %struct.NetVhostUserState, ptr %18, i32 0, i32 1
  call void @qemu_chr_fe_deinit(ptr noundef %chr, i1 noundef zeroext true)
  %19 = load ptr, ptr %s, align 8
  %vhost_user = getelementptr inbounds %struct.NetVhostUserState, ptr %19, i32 0, i32 2
  %20 = load ptr, ptr %vhost_user, align 8
  %tobool11 = icmp ne ptr %20, null
  br i1 %tobool11, label %if.then12, label %if.end16

if.then12:                                        ; preds = %if.end10
  %21 = load ptr, ptr %s, align 8
  %vhost_user13 = getelementptr inbounds %struct.NetVhostUserState, ptr %21, i32 0, i32 2
  %22 = load ptr, ptr %vhost_user13, align 8
  call void @vhost_user_cleanup(ptr noundef %22)
  %23 = load ptr, ptr %s, align 8
  %vhost_user14 = getelementptr inbounds %struct.NetVhostUserState, ptr %23, i32 0, i32 2
  %24 = load ptr, ptr %vhost_user14, align 8
  call void @g_free(ptr noundef %24)
  %25 = load ptr, ptr %s, align 8
  %vhost_user15 = getelementptr inbounds %struct.NetVhostUserState, ptr %25, i32 0, i32 2
  store ptr null, ptr %vhost_user15, align 8
  br label %if.end16

if.end16:                                         ; preds = %if.then12, %if.end10
  br label %if.end17

if.end17:                                         ; preds = %if.end16, %if.end
  %26 = load ptr, ptr %nc.addr, align 8
  call void @qemu_purge_queued_packets(ptr noundef %26)
  ret void
}