; Function Attrs: nounwind sspstrong uwtable
define internal void @net_vhost_user_cleanup(ptr noundef %nc) #0 {
entry:
  %vhost_net = getelementptr inbounds nuw i8, ptr %nc, i64 440
  %0 = load ptr, ptr %vhost_net, align 8
  %tobool.not = icmp eq ptr %0, null
  br i1 %tobool.not, label %if.end, label %if.then

if.then:                                          ; preds = %entry
  tail call void @vhost_net_cleanup(ptr noundef nonnull %0) #10
  %1 = load ptr, ptr %vhost_net, align 8
  tail call void @g_free(ptr noundef %1) #10
  store ptr null, ptr %vhost_net, align 8
  br label %if.end

if.end:                                           ; preds = %if.then, %entry
  %queue_index = getelementptr inbounds nuw i8, ptr %nc, i64 336
  %2 = load i32, ptr %queue_index, align 8
  %cmp = icmp eq i32 %2, 0
  br i1 %cmp, label %if.then5, label %if.end17

if.then5:                                         ; preds = %if.end
  %watch = getelementptr inbounds nuw i8, ptr %nc, i64 448
  %3 = load i32, ptr %watch, align 8
  %tobool6.not = icmp eq i32 %3, 0
  br i1 %tobool6.not, label %if.end10, label %if.then7

if.then7:                                         ; preds = %if.then5
  %call = tail call i32 @g_source_remove(i32 noundef %3) #10
  store i32 0, ptr %watch, align 8
  br label %if.end10

if.end10:                                         ; preds = %if.then7, %if.then5
  %chr = getelementptr inbounds nuw i8, ptr %nc, i64 376
  tail call void @qemu_chr_fe_deinit(ptr noundef nonnull %chr, i1 noundef zeroext true) #10
  %vhost_user = getelementptr inbounds nuw i8, ptr %nc, i64 432
  %4 = load ptr, ptr %vhost_user, align 8
  %tobool11.not = icmp eq ptr %4, null
  br i1 %tobool11.not, label %if.end17, label %if.then12

if.then12:                                        ; preds = %if.end10
  tail call void @vhost_user_cleanup(ptr noundef nonnull %4) #10
  %5 = load ptr, ptr %vhost_user, align 8
  tail call void @g_free(ptr noundef %5) #10
  store ptr null, ptr %vhost_user, align 8
  br label %if.end17

if.end17:                                         ; preds = %if.end10, %if.then12, %if.end
  tail call void @qemu_purge_queued_packets(ptr noundef nonnull %nc) #10
  ret void
}